; Function Attrs: mustprogress nounwind uwtable
define internal noundef i32 @_ZN4node4quic12_GLOBAL__N_121AlpnSelectionCallbackEP6ssl_stPPKhPhS5_jPv(ptr noundef %ssl, ptr noundef %out, ptr noundef %outlen, ptr noundef %in, i32 noundef %inlen, ptr nocapture readnone %arg) #4 {
entry:
  %requested = alloca %"class.std::__cxx11::basic_string", align 8
  %call.i = tail call ptr @SSL_get_ex_data(ptr noundef %ssl, i32 noundef 0) #18
  %0 = ptrtoint ptr %call.i to i64
  %sub.i.i.i = add i64 %0, -8
  %1 = inttoptr i64 %sub.i.i.i to ptr
  %alpn = getelementptr inbounds i8, ptr %1, i64 56
  call void @_ZNSt7__cxx1112basic_stringIcSt11char_traitsIcESaIcEEC1ERKS4_(ptr noundef nonnull align 8 dereferenceable(32) %requested, ptr noundef nonnull align 8 dereferenceable(32) %alpn) #18
  %call2 = call noundef i64 @_ZNKSt7__cxx1112basic_stringIcSt11char_traitsIcESaIcEE6lengthEv(ptr noundef nonnull align 8 dereferenceable(32) %requested) #18
  %cmp = icmp ugt i64 %call2, 255
  br i1 %cmp, label %cleanup, label %if.end

if.end:                                           ; preds = %entry
  %call3 = call noundef ptr @_ZNKSt7__cxx1112basic_stringIcSt11char_traitsIcESaIcEE5c_strEv(ptr noundef nonnull align 8 dereferenceable(32) %requested) #18
  %call4 = call noundef i64 @_ZNKSt7__cxx1112basic_stringIcSt11char_traitsIcESaIcEE6lengthEv(ptr noundef nonnull align 8 dereferenceable(32) %requested) #18
  %conv = trunc i64 %call4 to i32
  %call5 = call i32 @SSL_select_next_proto(ptr noundef %out, ptr noundef %outlen, ptr noundef %call3, i32 noundef %conv, ptr noundef %in, i32 noundef %inlen) #18
  %cmp6 = icmp eq i32 %call5, 2
  %. = select i1 %cmp6, i32 3, i32 0
  br label %cleanup

cleanup:                                          ; preds = %if.end, %entry
  %retval.0 = phi i32 [ 3, %entry ], [ %., %if.end ]
  call void @_ZNSt7__cxx1112basic_stringIcSt11char_traitsIcESaIcEED1Ev(ptr noundef nonnull align 8 dereferenceable(32) %requested) #18
  ret i32 %retval.0
}